target datalayout = "e-m:e-p270:32:32-p271:32:32-p272:64:64-i64:64-i128:128-f80:128-n8:16:32:64-S128"
target triple = "x86_64-pc-linux-gnu"

%"struct.cv::legacy::tracking::TrackerBoosting::Params" = type { i32, float, float, i32, i32 }
%"class.std::__shared_count" = type { ptr }
%"class.cv::legacy::tracking::TrackerBoostingImpl" = type <{ %"class.cv::legacy::tracking::TrackerBoosting", %"struct.cv::legacy::tracking::TrackerBoosting::Params", [4 x i8] }>
%"class.cv::legacy::tracking::TrackerBoosting" = type { %"class.cv::legacy::tracking::Tracker" }
%"class.cv::legacy::tracking::Tracker" = type { %"class.cv::Algorithm", i8, %"struct.cv::Ptr.8", %"struct.cv::Ptr.12", %"struct.cv::Ptr.16" }
%"class.cv::Algorithm" = type { ptr }
%"struct.cv::Ptr.8" = type { %"class.std::shared_ptr.9" }
%"class.std::shared_ptr.9" = type { %"class.std::__shared_ptr.10" }
%"class.std::__shared_ptr.10" = type { ptr, %"class.std::__shared_count" }
%"struct.cv::Ptr.12" = type { %"class.std::shared_ptr.13" }
%"class.std::shared_ptr.13" = type { %"class.std::__shared_ptr.14" }
%"class.std::__shared_ptr.14" = type { ptr, %"class.std::__shared_count" }
%"struct.cv::Ptr.16" = type { %"class.std::shared_ptr.17" }
%"class.std::shared_ptr.17" = type { %"class.std::__shared_ptr.18" }
%"class.std::__shared_ptr.18" = type { ptr, %"class.std::__shared_count" }

; Function Attrs: mustprogress uwtable
define hidden void @_ZNK2cv6legacy8tracking19TrackerBoostingImpl5writeERNS_11FileStorageE(ptr noundef nonnull align 8 dereferenceable(84) %0, ptr noundef nonnull align 8 dereferenceable(64) %1) unnamed_addr #5 align 2 {
  %3 = alloca ptr, align 8
  %4 = alloca ptr, align 8
  store ptr %0, ptr %3, align 8, !tbaa !41
  store ptr %1, ptr %4, align 8, !tbaa !18
  %5 = load ptr, ptr %3, align 8
  %6 = getelementptr inbounds nuw %"class.cv::legacy::tracking::TrackerBoostingImpl", ptr %5, i32 0, i32 1
  %7 = load ptr, ptr %4, align 8, !tbaa !18
  call void @_ZNK2cv6legacy8tracking15TrackerBoosting6Params5writeERNS_11FileStorageE(ptr noundef nonnull align 4 dereferenceable(20) %6, ptr noundef nonnull align 8 dereferenceable(64) %7)
  ret void
}

; Function Attrs: uwtable
define hidden void @_ZTv0_n40_NK2cv6legacy8tracking19TrackerBoostingImpl5writeERNS_11FileStorageE(ptr noundef %0, ptr noundef nonnull align 8 dereferenceable(64) %1) unnamed_addr #0 align 2 {
  %3 = alloca ptr, align 8
  %4 = alloca ptr, align 8
  store ptr %0, ptr %3, align 8, !tbaa !41
  store ptr %1, ptr %4, align 8, !tbaa !18
  %5 = load ptr, ptr %3, align 8
  %6 = load ptr, ptr %5, align 8, !tbaa !22
  %7 = getelementptr inbounds i8, ptr %6, i64 -40
  %8 = load i64, ptr %7, align 8
  %9 = getelementptr inbounds i8, ptr %5, i64 %8
  %10 = load ptr, ptr %4, align 8
  tail call void @_ZNK2cv6legacy8tracking19TrackerBoostingImpl5writeERNS_11FileStorageE(ptr noundef nonnull align 8 dereferenceable(84) %9, ptr noundef nonnull align 8 dereferenceable(64) %10)
  ret void
}